target datalayout = "e-m:e-p270:32:32-p271:32:32-p272:64:64-i64:64-i128:128-f80:128-n8:16:32:64-S128"
target triple = "x86_64-pc-linux-gnu"

%struct.PlannerInfo = type { i32, ptr, ptr, i32, ptr, ptr, ptr, ptr, i32, ptr, ptr, ptr, ptr, ptr, ptr, ptr, ptr, i32, ptr, ptr, ptr, ptr, ptr, i8, ptr, ptr, ptr, ptr, ptr, i32, ptr, ptr, ptr, ptr, ptr, ptr, ptr, i32, ptr, ptr, ptr, i32, ptr, ptr, ptr, ptr, ptr, ptr, [8 x ptr], [8 x ptr], ptr, ptr, ptr, ptr, ptr, ptr, ptr, double, double, double, i32, i8, i8, i8, i8, i8, i8, i8, i32, ptr, ptr, i32, i8, i8, i32, ptr, ptr, ptr, ptr, ptr, ptr, i8, ptr }

@.str.1 = private unnamed_addr constant [10 x i8] c"relnode.c\00", align 1
@.str.4 = private unnamed_addr constant [31 x i8] c"no relation entry for relid %d\00", align 1
@__func__.find_base_rel = private unnamed_addr constant [14 x i8] c"find_base_rel\00", align 1

; Function Attrs: nounwind uwtable
define dso_local ptr @find_base_rel(ptr noundef %0, i32 noundef %1) #0 {
  %3 = alloca ptr, align 8
  %4 = alloca ptr, align 8
  %5 = alloca i32, align 4
  %6 = alloca ptr, align 8
  %7 = alloca i32, align 4
  store ptr %0, ptr %4, align 8
  store i32 %1, ptr %5, align 4
  call void @llvm.lifetime.start.p0(i64 8, ptr %6) #6
  %8 = load i32, ptr %5, align 4
  %9 = load ptr, ptr %4, align 8
  %10 = getelementptr inbounds nuw %struct.PlannerInfo, ptr %9, i32 0, i32 8
  %11 = load i32, ptr %10, align 8
  %12 = icmp ult i32 %8, %11
  br i1 %12, label %13, label %26

13:                                               ; preds = %2
  %14 = load ptr, ptr %4, align 8
  %15 = getelementptr inbounds nuw %struct.PlannerInfo, ptr %14, i32 0, i32 7
  %16 = load ptr, ptr %15, align 8
  %17 = load i32, ptr %5, align 4
  %18 = sext i32 %17 to i64
  %19 = getelementptr inbounds ptr, ptr %16, i64 %18
  %20 = load ptr, ptr %19, align 8
  store ptr %20, ptr %6, align 8
  %21 = load ptr, ptr %6, align 8
  %22 = icmp ne ptr %21, null
  br i1 %22, label %23, label %25

23:                                               ; preds = %13
  %24 = load ptr, ptr %6, align 8
  store ptr %24, ptr %3, align 8
  store i32 1, ptr %7, align 4
  br label %38

25:                                               ; preds = %13
  br label %26

26:                                               ; preds = %25, %2
  br label %27

27:                                               ; preds = %26
  br i1 true, label %28, label %30

28:                                               ; preds = %27
  %29 = call zeroext i1 @errstart_cold(i32 noundef 21, ptr noundef null) #7
  br i1 %29, label %32, label %35

30:                                               ; preds = %27
  %31 = call zeroext i1 @errstart(i32 noundef 21, ptr noundef null)
  br i1 %31, label %32, label %35

32:                                               ; preds = %30, %28
  %33 = load i32, ptr %5, align 4
  %34 = call i32 (ptr, ...) @errmsg_internal(ptr noundef @.str.4, i32 noundef %33)
  call void @errfinish(ptr noundef @.str.1, i32 noundef 426, ptr noundef @__func__.find_base_rel)
  br label %35

35:                                               ; preds = %32, %30, %28
  unreachable

36:                                               ; No predecessors!
  br label %37

37:                                               ; preds = %36
  store ptr null, ptr %3, align 8
  store i32 1, ptr %7, align 4
  br label %38

38:                                               ; preds = %37, %23
  call void @llvm.lifetime.end.p0(i64 8, ptr %6) #6
  %39 = load ptr, ptr %3, align 8
  ret ptr %39
}