; Function Attrs: nounwind uwtable
define dso_local nonnull ptr @find_base_rel(ptr noundef readonly captures(none) %0, i32 noundef %1) local_unnamed_addr #0 {
  %3 = getelementptr inbounds nuw i8, ptr %0, i64 64
  %4 = load i32, ptr %3, align 8
  %5 = icmp ult i32 %1, %4
  br i1 %5, label %6, label %13

6:                                                ; preds = %2
  %7 = getelementptr inbounds nuw i8, ptr %0, i64 56
  %8 = load ptr, ptr %7, align 8
  %9 = sext i32 %1 to i64
  %10 = getelementptr inbounds ptr, ptr %8, i64 %9
  %11 = load ptr, ptr %10, align 8
  %.not = icmp eq ptr %11, null
  br i1 %.not, label %13, label %12

12:                                               ; preds = %6
  ret ptr %11

13:                                               ; preds = %6, %2
  %14 = tail call zeroext i1 @errstart_cold(i32 noundef 21, ptr noundef null) #8
  tail call void @llvm.assume(i1 %14)
  %15 = tail call i32 (ptr, ...) @errmsg_internal(ptr noundef nonnull @.str.4, i32 noundef %1) #7
  tail call void @errfinish(ptr noundef nonnull @.str.1, i32 noundef 426, ptr noundef nonnull @__func__.find_base_rel) #7
  unreachable
}